target datalayout = "e-m:e-p270:32:32-p271:32:32-p272:64:64-i64:64-i128:128-f80:128-n8:16:32:64-S128"
target triple = "x86_64-unknown-linux-gnu"

%class.symbol = type { ptr }
%class.ast = type { i32, i24, i32, i32 }
%"class.datalog::rule" = type { %"class.datalog::accounted_object.base", ptr, ptr, i32, i32, i32, i32, %class.symbol, [0 x ptr] }
%"class.datalog::accounted_object.base" = type <{ ptr, ptr, %"struct.datalog::costs", %"struct.datalog::costs", i8 }>
%"struct.datalog::costs" = type { i32, i32 }
%class.app = type { %class.expr, ptr, i32, [0 x ptr] }
%class.expr = type { %class.ast }

; Function Attrs: mustprogress nounwind uwtable
define linkonce_odr hidden noundef i32 @_ZNK3ast8get_kindEv(ptr noundef nonnull align 4 dereferenceable(16) %this) #5 comdat align 2 {
entry:
  %this.addr = alloca ptr, align 8
  store ptr %this, ptr %this.addr, align 8
  %this1 = load ptr, ptr %this.addr, align 8
  %m_kind = getelementptr inbounds %class.ast, ptr %this1, i32 0, i32 1
  %bf.load = load i32, ptr %m_kind, align 4
  %bf.clear = and i32 %bf.load, 65535
  ret i32 %bf.clear
}

; Function Attrs: mustprogress nounwind uwtable
define internal noundef i32 @_ZN7datalogL11aux_compareIjEEiT_S1_(i32 noundef %a, i32 noundef %b) #5 {
entry:
  %a.addr = alloca i32, align 4
  %b.addr = alloca i32, align 4
  store i32 %a, ptr %a.addr, align 4
  store i32 %b, ptr %b.addr, align 4
  %0 = load i32, ptr %a.addr, align 4
  %1 = load i32, ptr %b.addr, align 4
  %cmp = icmp ugt i32 %0, %1
  br i1 %cmp, label %cond.true, label %cond.false

cond.true:                                        ; preds = %entry
  br label %cond.end

cond.false:                                       ; preds = %entry
  %2 = load i32, ptr %a.addr, align 4
  %3 = load i32, ptr %b.addr, align 4
  %cmp1 = icmp eq i32 %2, %3
  %cond = select i1 %cmp1, i32 0, i32 -1
  br label %cond.end

cond.end:                                         ; preds = %cond.false, %cond.true
  %cond2 = phi i32 [ 1, %cond.true ], [ %cond, %cond.false ]
  ret i32 %cond2
}

; Function Attrs: mustprogress nounwind uwtable
define linkonce_odr hidden noundef i32 @_ZNK3ast6get_idEv(ptr noundef nonnull align 4 dereferenceable(16) %this) #5 comdat align 2 {
entry:
  %this.addr = alloca ptr, align 8
  store ptr %this, ptr %this.addr, align 8
  %this1 = load ptr, ptr %this.addr, align 8
  %m_id = getelementptr inbounds %class.ast, ptr %this1, i32 0, i32 0
  %0 = load i32, ptr %m_id, align 4
  ret i32 %0
}

; Function Attrs: mustprogress uwtable
define linkonce_odr hidden noundef zeroext i1 @_Z6is_varPK3ast(ptr noundef %n) #4 comdat {
entry:
  %n.addr = alloca ptr, align 8
  store ptr %n, ptr %n.addr, align 8
  %0 = load ptr, ptr %n.addr, align 8
  %call = call noundef i32 @_ZNK3ast8get_kindEv(ptr noundef nonnull align 4 dereferenceable(16) %0)
  %cmp = icmp eq i32 %call, 1
  ret i1 %cmp
}

; Function Attrs: mustprogress nounwind uwtable
define linkonce_odr hidden noundef ptr @_ZNK3app7get_argEj(ptr noundef nonnull align 8 dereferenceable(32) %this, i32 noundef %idx) #5 comdat align 2 {
entry:
  %this.addr = alloca ptr, align 8
  %idx.addr = alloca i32, align 4
  store ptr %this, ptr %this.addr, align 8
  store i32 %idx, ptr %idx.addr, align 4
  %this1 = load ptr, ptr %this.addr, align 8
  %m_args = getelementptr inbounds %class.app, ptr %this1, i32 0, i32 3
  %0 = load i32, ptr %idx.addr, align 4
  %idxprom = zext i32 %0 to i64
  %arrayidx = getelementptr inbounds [0 x ptr], ptr %m_args, i64 0, i64 %idxprom
  %1 = load ptr, ptr %arrayidx, align 8
  ret ptr %1
}

; Function Attrs: mustprogress nounwind uwtable
define linkonce_odr hidden noundef i32 @_ZNK3app12get_num_argsEv(ptr noundef nonnull align 8 dereferenceable(32) %this) #5 comdat align 2 {
entry:
  %this.addr = alloca ptr, align 8
  store ptr %this, ptr %this.addr, align 8
  %this1 = load ptr, ptr %this.addr, align 8
  %m_num_args = getelementptr inbounds %class.app, ptr %this1, i32 0, i32 2
  %0 = load i32, ptr %m_num_args, align 8
  ret i32 %0
}

; Function Attrs: mustprogress nounwind uwtable
define linkonce_odr hidden noundef ptr @_ZNK7datalog4rule8get_tailEj(ptr noundef nonnull align 8 dereferenceable(80) %this, i32 noundef %i) #5 comdat align 2 {
entry:
  %this.addr = alloca ptr, align 8
  %i.addr = alloca i32, align 4
  store ptr %this, ptr %this.addr, align 8
  store i32 %i, ptr %i.addr, align 4
  %this1 = load ptr, ptr %this.addr, align 8
  %m_tail = getelementptr inbounds %"class.datalog::rule", ptr %this1, i32 0, i32 8
  %0 = load i32, ptr %i.addr, align 4
  %idxprom = zext i32 %0 to i64
  %arrayidx = getelementptr inbounds [0 x ptr], ptr %m_tail, i64 0, i64 %idxprom
  %1 = load ptr, ptr %arrayidx, align 8
  %2 = ptrtoint ptr %1 to i64
  %and = and i64 %2, -8
  %3 = inttoptr i64 %and to ptr
  ret ptr %3
}

; Function Attrs: mustprogress nounwind uwtable
define linkonce_odr hidden noundef ptr @_ZNK7datalog4rule8get_headEv(ptr noundef nonnull align 8 dereferenceable(80) %this) #5 comdat align 2 {
entry:
  %this.addr = alloca ptr, align 8
  store ptr %this, ptr %this.addr, align 8
  %this1 = load ptr, ptr %this.addr, align 8
  %m_head = getelementptr inbounds %"class.datalog::rule", ptr %this1, i32 0, i32 1
  %0 = load ptr, ptr %m_head, align 8
  ret ptr %0
}

; Function Attrs: mustprogress uwtable
define internal noundef i32 @_ZN7datalogL12compare_argsEP3appS1_Ri(ptr noundef %t1, ptr noundef %t2, ptr noundef nonnull align 4 dereferenceable(4) %skip_countdown) #4 {
entry:
  %retval = alloca i32, align 4
  %t1.addr = alloca ptr, align 8
  %t2.addr = alloca ptr, align 8
  %skip_countdown.addr = alloca ptr, align 8
  %res = alloca i32, align 4
  %n = alloca i32, align 4
  %i = alloca i32, align 4
  store ptr %t1, ptr %t1.addr, align 8
  store ptr %t2, ptr %t2.addr, align 8
  store ptr %skip_countdown, ptr %skip_countdown.addr, align 8
  %0 = load ptr, ptr %t1.addr, align 8
  %call = call noundef i32 @_ZNK3app12get_num_argsEv(ptr noundef nonnull align 8 dereferenceable(32) %0)
  store i32 %call, ptr %n, align 4
  store i32 0, ptr %i, align 4
  br label %for.cond

for.cond:                                         ; preds = %for.inc, %entry
  %1 = load i32, ptr %i, align 4
  %2 = load i32, ptr %n, align 4
  %cmp = icmp ult i32 %1, %2
  br i1 %cmp, label %for.body, label %for.end

for.body:                                         ; preds = %for.cond
  %3 = load ptr, ptr %t1.addr, align 8
  %4 = load i32, ptr %i, align 4
  %call1 = call noundef ptr @_ZNK3app7get_argEj(ptr noundef nonnull align 8 dereferenceable(32) %3, i32 noundef %4)
  %call2 = call noundef zeroext i1 @_Z6is_varPK3ast(ptr noundef %call1)
  br i1 %call2, label %if.then, label %if.end

if.then:                                          ; preds = %for.body
  br label %for.inc

if.end:                                           ; preds = %for.body
  %5 = load ptr, ptr %skip_countdown.addr, align 8
  %6 = load i32, ptr %5, align 4
  %dec = add nsw i32 %6, -1
  store i32 %dec, ptr %5, align 4
  %cmp3 = icmp eq i32 %6, 0
  br i1 %cmp3, label %if.then4, label %if.end5

if.then4:                                         ; preds = %if.end
  br label %for.inc

if.end5:                                          ; preds = %if.end
  %7 = load ptr, ptr %t1.addr, align 8
  %8 = load i32, ptr %i, align 4
  %call6 = call noundef ptr @_ZNK3app7get_argEj(ptr noundef nonnull align 8 dereferenceable(32) %7, i32 noundef %8)
  %call7 = call noundef i32 @_ZNK3ast6get_idEv(ptr noundef nonnull align 4 dereferenceable(16) %call6)
  %9 = load ptr, ptr %t2.addr, align 8
  %10 = load i32, ptr %i, align 4
  %call8 = call noundef ptr @_ZNK3app7get_argEj(ptr noundef nonnull align 8 dereferenceable(32) %9, i32 noundef %10)
  %call9 = call noundef i32 @_ZNK3ast6get_idEv(ptr noundef nonnull align 4 dereferenceable(16) %call8)
  %call10 = call noundef i32 @_ZN7datalogL11aux_compareIjEEiT_S1_(i32 noundef %call7, i32 noundef %call9)
  store i32 %call10, ptr %res, align 4
  %11 = load i32, ptr %res, align 4
  %cmp11 = icmp ne i32 %11, 0
  br i1 %cmp11, label %if.then12, label %if.end13

if.then12:                                        ; preds = %if.end5
  %12 = load i32, ptr %res, align 4
  store i32 %12, ptr %retval, align 4
  br label %return

if.end13:                                         ; preds = %if.end5
  br label %for.inc

for.inc:                                          ; preds = %if.end13, %if.then4, %if.then
  %13 = load i32, ptr %i, align 4
  %inc = add i32 %13, 1
  store i32 %inc, ptr %i, align 4
  br label %for.cond, !llvm.loop !51

for.end:                                          ; preds = %for.cond
  store i32 0, ptr %retval, align 4
  br label %return

return:                                           ; preds = %for.end, %if.then12
  %14 = load i32, ptr %retval, align 4
  ret i32 %14
}

; Function Attrs: mustprogress uwtable
define internal noundef ptr @_ZN7datalogL17get_by_tail_indexEPNS_4ruleEi(ptr noundef %r, i32 noundef %idx) #4 {
entry:
  %retval = alloca ptr, align 8
  %r.addr = alloca ptr, align 8
  %idx.addr = alloca i32, align 4
  store ptr %r, ptr %r.addr, align 8
  store i32 %idx, ptr %idx.addr, align 4
  %0 = load i32, ptr %idx.addr, align 4
  %cmp = icmp slt i32 %0, 0
  br i1 %cmp, label %if.then, label %if.end

if.then:                                          ; preds = %entry
  %1 = load ptr, ptr %r.addr, align 8
  %call = call noundef ptr @_ZNK7datalog4rule8get_headEv(ptr noundef nonnull align 8 dereferenceable(80) %1)
  store ptr %call, ptr %retval, align 8
  br label %return

if.end:                                           ; preds = %entry
  %2 = load ptr, ptr %r.addr, align 8
  %3 = load i32, ptr %idx.addr, align 4
  %call1 = call noundef ptr @_ZNK7datalog4rule8get_tailEj(ptr noundef nonnull align 8 dereferenceable(80) %2, i32 noundef %3)
  store ptr %call1, ptr %retval, align 8
  br label %return

return:                                           ; preds = %if.end, %if.then
  %4 = load ptr, ptr %retval, align 8
  ret ptr %4
}

; Function Attrs: mustprogress nounwind uwtable
define linkonce_odr hidden noundef i32 @_ZNK7datalog4rule22get_positive_tail_sizeEv(ptr noundef nonnull align 8 dereferenceable(80) %this) #5 comdat align 2 {
entry:
  %this.addr = alloca ptr, align 8
  store ptr %this, ptr %this.addr, align 8
  %this1 = load ptr, ptr %this.addr, align 8
  %m_positive_cnt = getelementptr inbounds %"class.datalog::rule", ptr %this1, i32 0, i32 5
  %0 = load i32, ptr %m_positive_cnt, align 8
  ret i32 %0
}

; Function Attrs: mustprogress uwtable
define internal noundef i32 @_ZN7datalogL13total_compareEPNS_4ruleES1_i(ptr noundef %r1, ptr noundef %r2, i32 noundef %skipped_arg_index) #4 {
entry:
  %retval = alloca i32, align 4
  %r1.addr = alloca ptr, align 8
  %r2.addr = alloca ptr, align 8
  %skipped_arg_index.addr = alloca i32, align 4
  %pos_tail_sz = alloca i32, align 4
  %i = alloca i32, align 4
  %res = alloca i32, align 4
  store ptr %r1, ptr %r1.addr, align 8
  store ptr %r2, ptr %r2.addr, align 8
  store i32 %skipped_arg_index, ptr %skipped_arg_index.addr, align 4
  %0 = load ptr, ptr %r1.addr, align 8
  %call = call noundef i32 @_ZNK7datalog4rule22get_positive_tail_sizeEv(ptr noundef nonnull align 8 dereferenceable(80) %0)
  store i32 %call, ptr %pos_tail_sz, align 4
  store i32 -1, ptr %i, align 4
  br label %for.cond

for.cond:                                         ; preds = %for.inc, %entry
  %1 = load i32, ptr %i, align 4
  %2 = load i32, ptr %pos_tail_sz, align 4
  %cmp = icmp slt i32 %1, %2
  br i1 %cmp, label %for.body, label %for.end

for.body:                                         ; preds = %for.cond
  %3 = load ptr, ptr %r1.addr, align 8
  %4 = load i32, ptr %i, align 4
  %call1 = call noundef ptr @_ZN7datalogL17get_by_tail_indexEPNS_4ruleEi(ptr noundef %3, i32 noundef %4)
  %5 = load ptr, ptr %r2.addr, align 8
  %6 = load i32, ptr %i, align 4
  %call2 = call noundef ptr @_ZN7datalogL17get_by_tail_indexEPNS_4ruleEi(ptr noundef %5, i32 noundef %6)
  %call3 = call noundef i32 @_ZN7datalogL12compare_argsEP3appS1_Ri(ptr noundef %call1, ptr noundef %call2, ptr noundef nonnull align 4 dereferenceable(4) %skipped_arg_index.addr)
  store i32 %call3, ptr %res, align 4
  %7 = load i32, ptr %res, align 4
  %cmp4 = icmp ne i32 %7, 0
  br i1 %cmp4, label %if.then, label %if.end

if.then:                                          ; preds = %for.body
  %8 = load i32, ptr %res, align 4
  store i32 %8, ptr %retval, align 4
  br label %return

if.end:                                           ; preds = %for.body
  br label %for.inc

for.inc:                                          ; preds = %if.end
  %9 = load i32, ptr %i, align 4
  %inc = add nsw i32 %9, 1
  store i32 %inc, ptr %i, align 4
  br label %for.cond, !llvm.loop !24

for.end:                                          ; preds = %for.cond
  store i32 0, ptr %retval, align 4
  br label %return

return:                                           ; preds = %for.end, %if.then
  %10 = load i32, ptr %retval, align 4
  ret i32 %10
}

; Function Attrs: mustprogress uwtable
define internal noundef zeroext i1 @_ZN7datalogL18initial_comparatorEPNS_4ruleES1_(ptr noundef %r1, ptr noundef %r2) #4 {
entry:
  %retval = alloca i1, align 1
  %r1.addr = alloca ptr, align 8
  %r2.addr = alloca ptr, align 8
  %res = alloca i32, align 4
  store ptr %r1, ptr %r1.addr, align 8
  store ptr %r2, ptr %r2.addr, align 8
  %0 = load ptr, ptr %r1.addr, align 8
  %1 = load ptr, ptr %r2.addr, align 8
  %call = call noundef i32 @_ZN7datalogL13rough_compareEPNS_4ruleES1_(ptr noundef %0, ptr noundef %1)
  store i32 %call, ptr %res, align 4
  %2 = load i32, ptr %res, align 4
  %cmp = icmp ne i32 %2, 0
  br i1 %cmp, label %if.then, label %if.end

if.then:                                          ; preds = %entry
  %3 = load i32, ptr %res, align 4
  %cmp1 = icmp sgt i32 %3, 0
  store i1 %cmp1, ptr %retval, align 1
  br label %return

if.end:                                           ; preds = %entry
  %4 = load ptr, ptr %r1.addr, align 8
  %5 = load ptr, ptr %r2.addr, align 8
  %call2 = call noundef i32 @_ZN7datalogL13total_compareEPNS_4ruleES1_i(ptr noundef %4, ptr noundef %5, i32 noundef 2147483647)
  %cmp3 = icmp sgt i32 %call2, 0
  store i1 %cmp3, ptr %retval, align 1
  br label %return

return:                                           ; preds = %if.end, %if.then
  %6 = load i1, ptr %retval, align 1
  ret i1 %6
}