; Function Attrs: mustprogress nofree norecurse nosync nounwind willreturn memory(read, inaccessiblemem: none) uwtable
define internal noundef zeroext i1 @_ZN7datalogL18initial_comparatorEPNS_4ruleES1_(ptr nocapture noundef readonly %r1, ptr nocapture noundef readonly %r2) #5 {
entry:
  %call = tail call fastcc noundef i32 @_ZN7datalogL13rough_compareEPNS_4ruleES1_(ptr noundef %r1, ptr noundef %r2)
  %cmp.not = icmp eq i32 %call, 0
  br i1 %cmp.not, label %if.end, label %return

if.end:                                           ; preds = %entry
  %m_positive_cnt.i.i = getelementptr inbounds i8, ptr %r1, i64 64
  %0 = load i32, ptr %m_positive_cnt.i.i, align 8
  %cmp27.i = icmp sgt i32 %0, -1
  br i1 %cmp27.i, label %for.body.lr.ph.i, label %return

for.body.lr.ph.i:                                 ; preds = %if.end
  %m_tail.i.i.i = getelementptr inbounds i8, ptr %r1, i64 80
  %m_tail.i.i8.i = getelementptr inbounds i8, ptr %r2, i64 80
  %m_head.i.i.i = getelementptr inbounds i8, ptr %r1, i64 40
  %m_head.i.i14.i = getelementptr inbounds i8, ptr %r2, i64 40
  br label %for.body.i

for.body.i:                                       ; preds = %for.inc.i, %for.body.lr.ph.i
  %i.029.i = phi i32 [ -1, %for.body.lr.ph.i ], [ %inc.i, %for.inc.i ]
  %skipped_arg_index.addr.028.i = phi i32 [ 2147483647, %for.body.lr.ph.i ], [ %skipped_arg_index.addr.325.i, %for.inc.i ]
  %cmp.i.i = icmp slt i32 %i.029.i, 0
  br i1 %cmp.i.i, label %if.then.i13.i, label %if.end.i7.i

if.then.i13.i:                                    ; preds = %for.body.i
  %1 = load ptr, ptr %m_head.i.i.i, align 8
  %2 = load ptr, ptr %m_head.i.i14.i, align 8
  br label %_ZN7datalogL17get_by_tail_indexEPNS_4ruleEi.exit15.i

if.end.i7.i:                                      ; preds = %for.body.i
  %idxprom.i.i.i = zext nneg i32 %i.029.i to i64
  %arrayidx.i.i.i = getelementptr inbounds [0 x ptr], ptr %m_tail.i.i.i, i64 0, i64 %idxprom.i.i.i
  %3 = load ptr, ptr %arrayidx.i.i.i, align 8
  %4 = ptrtoint ptr %3 to i64
  %and.i.i.i = and i64 %4, -8
  %5 = inttoptr i64 %and.i.i.i to ptr
  %arrayidx.i.i10.i = getelementptr inbounds [0 x ptr], ptr %m_tail.i.i8.i, i64 0, i64 %idxprom.i.i.i
  %6 = load ptr, ptr %arrayidx.i.i10.i, align 8
  %7 = ptrtoint ptr %6 to i64
  %and.i.i11.i = and i64 %7, -8
  %8 = inttoptr i64 %and.i.i11.i to ptr
  br label %_ZN7datalogL17get_by_tail_indexEPNS_4ruleEi.exit15.i

_ZN7datalogL17get_by_tail_indexEPNS_4ruleEi.exit15.i: ; preds = %if.end.i7.i, %if.then.i13.i
  %retval.0.i20.i = phi ptr [ %1, %if.then.i13.i ], [ %5, %if.end.i7.i ]
  %retval.0.i12.i = phi ptr [ %2, %if.then.i13.i ], [ %8, %if.end.i7.i ]
  %m_num_args.i.i.i = getelementptr inbounds i8, ptr %retval.0.i20.i, i64 24
  %9 = load i32, ptr %m_num_args.i.i.i, align 8
  %cmp17.not.i.i = icmp eq i32 %9, 0
  br i1 %cmp17.not.i.i, label %for.inc.i, label %for.body.lr.ph.i.i

for.body.lr.ph.i.i:                               ; preds = %_ZN7datalogL17get_by_tail_indexEPNS_4ruleEi.exit15.i
  %m_args.i.i.i = getelementptr inbounds i8, ptr %retval.0.i20.i, i64 32
  %m_args.i11.i.i = getelementptr inbounds i8, ptr %retval.0.i12.i, i64 32
  %wide.trip.count.i.i = zext i32 %9 to i64
  br label %for.body.i.i

for.body.i.i:                                     ; preds = %for.inc.i.i, %for.body.lr.ph.i.i
  %skipped_arg_index.addr.1.i = phi i32 [ %skipped_arg_index.addr.028.i, %for.body.lr.ph.i.i ], [ %skipped_arg_index.addr.2.i, %for.inc.i.i ]
  %indvars.iv.i.i = phi i64 [ 0, %for.body.lr.ph.i.i ], [ %indvars.iv.next.i.i, %for.inc.i.i ]
  %dec1618.i.i = phi i32 [ %skipped_arg_index.addr.028.i, %for.body.lr.ph.i.i ], [ %dec15.i.i, %for.inc.i.i ]
  %arrayidx.i.i16.i = getelementptr inbounds [0 x ptr], ptr %m_args.i.i.i, i64 0, i64 %indvars.iv.i.i
  %10 = load ptr, ptr %arrayidx.i.i16.i, align 8
  %m_kind.i.i.i.i = getelementptr inbounds i8, ptr %10, i64 4
  %bf.load.i.i.i.i = load i32, ptr %m_kind.i.i.i.i, align 4
  %bf.clear.i.i.i.i = and i32 %bf.load.i.i.i.i, 65535
  %cmp.i.i.i = icmp eq i32 %bf.clear.i.i.i.i, 1
  br i1 %cmp.i.i.i, label %for.inc.i.i, label %if.end.i17.i

if.end.i17.i:                                     ; preds = %for.body.i.i
  %cmp3.i.i = icmp eq i32 %dec1618.i.i, 0
  br i1 %cmp3.i.i, label %for.inc.i.i, label %if.end5.i.i

if.end5.i.i:                                      ; preds = %if.end.i17.i
  %dec.i.i = add nsw i32 %dec1618.i.i, -1
  %11 = load i32, ptr %10, align 4
  %arrayidx.i13.i.i = getelementptr inbounds [0 x ptr], ptr %m_args.i11.i.i, i64 0, i64 %indvars.iv.i.i
  %12 = load ptr, ptr %arrayidx.i13.i.i, align 8
  %13 = load i32, ptr %12, align 4
  %cmp.i14.i.i = icmp ugt i32 %11, %13
  %cmp1.i.i.i = icmp ne i32 %11, %13
  %cond.i.i.i = sext i1 %cmp1.i.i.i to i32
  %cond2.i.i.i = select i1 %cmp.i14.i.i, i32 1, i32 %cond.i.i.i
  %cmp11.not.i.i = icmp eq i32 %cond2.i.i.i, 0
  br i1 %cmp11.not.i.i, label %for.inc.i.i, label %return

for.inc.i.i:                                      ; preds = %if.end5.i.i, %if.end.i17.i, %for.body.i.i
  %skipped_arg_index.addr.2.i = phi i32 [ %skipped_arg_index.addr.1.i, %for.body.i.i ], [ -1, %if.end.i17.i ], [ %dec.i.i, %if.end5.i.i ]
  %dec15.i.i = phi i32 [ %dec1618.i.i, %for.body.i.i ], [ -1, %if.end.i17.i ], [ %dec.i.i, %if.end5.i.i ]
  %indvars.iv.next.i.i = add nuw nsw i64 %indvars.iv.i.i, 1
  %exitcond.not.i.i = icmp eq i64 %indvars.iv.next.i.i, %wide.trip.count.i.i
  br i1 %exitcond.not.i.i, label %for.inc.i, label %for.body.i.i, !llvm.loop !30

for.inc.i:                                        ; preds = %for.inc.i.i, %_ZN7datalogL17get_by_tail_indexEPNS_4ruleEi.exit15.i
  %skipped_arg_index.addr.325.i = phi i32 [ %skipped_arg_index.addr.028.i, %_ZN7datalogL17get_by_tail_indexEPNS_4ruleEi.exit15.i ], [ %skipped_arg_index.addr.2.i, %for.inc.i.i ]
  %inc.i = add nsw i32 %i.029.i, 1
  %exitcond.not.i = icmp eq i32 %inc.i, %0
  br i1 %exitcond.not.i, label %return, label %for.body.i, !llvm.loop !31

return:                                           ; preds = %for.inc.i, %if.end5.i.i, %if.end, %entry
  %retval.0.in = phi i32 [ %call, %entry ], [ 0, %if.end ], [ %cond2.i.i.i, %if.end5.i.i ], [ 0, %for.inc.i ]
  %retval.0 = icmp sgt i32 %retval.0.in, 0
  ret i1 %retval.0
}